TN:
SF:/media/sahil/data1/gyan_backend/assests/usecases/automation/Cpp/Test_Folder/UTCProject_Folder/src/main/src/add.cpp
FN:3,_Z3addii
FNDA:4,_Z3addii
FNF:1
FNH:1
DA:3,4
DA:4,4
LF:2
LH:2
end_of_record
TN:
SF:/media/sahil/data1/gyan_backend/assests/usecases/automation/Cpp/Test_Folder/UTCProject_Folder/src/main/src/findmax.cpp
FN:3,_Z7findMaxPKii
FNDA:6,_Z7findMaxPKii
FNF:1
FNH:1
DA:3,6
DA:4,6
DA:5,14
DA:6,8
DA:7,6
DA:10,6
LF:6
LH:6
end_of_record
TN:
SF:/media/sahil/data1/gyan_backend/assests/usecases/automation/Cpp/Test_Folder/UTCProject_Folder/src/test/src/add_test.cpp
FN:5,_ZN29AddTests_PositiveNumbers_Test8TestBodyEv
FN:5,_ZN29AddTests_PositiveNumbers_TestD2Ev
FN:5,_ZN29AddTests_PositiveNumbers_TestD0Ev
FN:5,_ZN29AddTests_PositiveNumbers_TestC2Ev
FN:9,_ZN45AddTests_NegativeNumberAndPositiveNumber_Test8TestBodyEv
FN:9,_ZN45AddTests_NegativeNumberAndPositiveNumber_TestD2Ev
FN:9,_ZN45AddTests_NegativeNumberAndPositiveNumber_TestC2Ev
FN:9,_ZN45AddTests_NegativeNumberAndPositiveNumber_TestD0Ev
FNDA:2,_ZN29AddTests_PositiveNumbers_Test8TestBodyEv
FNDA:2,_ZN29AddTests_PositiveNumbers_TestD2Ev
FNDA:2,_ZN45AddTests_NegativeNumberAndPositiveNumber_TestD2Ev
FNDA:2,_ZN45AddTests_NegativeNumberAndPositiveNumber_Test8TestBodyEv
FNDA:2,_ZN29AddTests_PositiveNumbers_TestD0Ev
FNDA:2,_ZN29AddTests_PositiveNumbers_TestC2Ev
FNDA:2,_ZN45AddTests_NegativeNumberAndPositiveNumber_TestC2Ev
FNDA:2,_ZN45AddTests_NegativeNumberAndPositiveNumber_TestD0Ev
FNF:8
FNH:8
DA:5,8
DA:6,2
DA:7,2
DA:9,8
DA:10,2
DA:11,2
LF:6
LH:6
end_of_record
TN:
SF:/media/sahil/data1/gyan_backend/assests/usecases/automation/Cpp/Test_Folder/UTCProject_Folder/src/test/src/findmax_test.cpp
FN:5,_ZN39FindMaxTests_EmptyArrayReturnsZero_TestD2Ev
FN:5,_ZN39FindMaxTests_EmptyArrayReturnsZero_Test8TestBodyEv
FN:5,_ZN39FindMaxTests_EmptyArrayReturnsZero_TestD0Ev
FN:5,_ZN39FindMaxTests_EmptyArrayReturnsZero_TestC2Ev
FN:10,_ZN52FindMaxTests_SingleElementArrayReturnsThatValue_TestD2Ev
FN:10,_ZN52FindMaxTests_SingleElementArrayReturnsThatValue_TestC2Ev
FN:10,_ZN52FindMaxTests_SingleElementArrayReturnsThatValue_TestD0Ev
FN:10,_ZN52FindMaxTests_SingleElementArrayReturnsThatValue_Test8TestBodyEv
FN:15,_ZN50FindMaxTests_MultipleElementsReturnLargestOne_TestC2Ev
FN:15,_ZN50FindMaxTests_MultipleElementsReturnLargestOne_Test8TestBodyEv
FN:15,_ZN50FindMaxTests_MultipleElementsReturnLargestOne_TestD0Ev
FN:15,_ZN50FindMaxTests_MultipleElementsReturnLargestOne_TestD2Ev
FNDA:2,_ZN39FindMaxTests_EmptyArrayReturnsZero_TestD2Ev
FNDA:2,_ZN50FindMaxTests_MultipleElementsReturnLargestOne_TestC2Ev
FNDA:2,_ZN52FindMaxTests_SingleElementArrayReturnsThatValue_TestD2Ev
FNDA:2,_ZN50FindMaxTests_MultipleElementsReturnLargestOne_Test8TestBodyEv
FNDA:2,_ZN39FindMaxTests_EmptyArrayReturnsZero_Test8TestBodyEv
FNDA:2,_ZN50FindMaxTests_MultipleElementsReturnLargestOne_TestD0Ev
FNDA:2,_ZN52FindMaxTests_SingleElementArrayReturnsThatValue_TestC2Ev
FNDA:2,_ZN52FindMaxTests_SingleElementArrayReturnsThatValue_TestD0Ev
FNDA:2,_ZN39FindMaxTests_EmptyArrayReturnsZero_TestD0Ev
FNDA:2,_ZN52FindMaxTests_SingleElementArrayReturnsThatValue_Test8TestBodyEv
FNDA:2,_ZN39FindMaxTests_EmptyArrayReturnsZero_TestC2Ev
FNDA:2,_ZN50FindMaxTests_MultipleElementsReturnLargestOne_TestD2Ev
FNF:12
FNH:12
DA:5,8
DA:7,2
DA:8,2
DA:10,8
DA:11,2
DA:12,2
DA:13,2
DA:15,8
DA:16,2
DA:17,2
DA:18,2
LF:11
LH:11
end_of_record
